ccopy_reg
_reconstructor
p0
(cmaxwell
pmlList
p1
c__builtin__
object
p2
Ntp3
Rp4
(dp5
S'freq'
p6
cnumpy.core.multiarray
_reconstruct
p7
(cnumpy
ndarray
p8
(I0
tp9
S'b'
p10
tp11
Rp12
(I1
(I1
tp13
cnumpy
dtype
p14
(S'f8'
p15
I0
I1
tp16
Rp17
(I3
S'<'
p18
NNNI-1
I-1
I0
tp19
bI00
S'\x00\x00\x00\x00\x80\x84.A'
p20
tp21
bsS'pmc'
p22
g7
(g8
(I0
tp23
g10
tp24
Rp25
(I1
(I1
tp26
g17
I00
S'\xdd+xp\xbbO5@'
p27
tp28
bsb.